; Function Attrs: mustprogress nounwind uwtable
define hidden noundef i32 @_ZN17ExternalsRecorder10find_indexEPh(ptr noundef %0) local_unnamed_addr #0 align 2 {
  %2 = load ptr, ptr @ExternalsRecorder_lock, align 8
  %.not.i.i = icmp eq ptr %2, null
  br i1 %.not.i.i, label %_ZN11MutexLockerC2EP5MutexNS0_18SafepointCheckFlagE.exit, label %3

3:                                                ; preds = %1
  tail call void @_ZN5Mutex28lock_without_safepoint_checkEv(ptr noundef nonnull align 8 dereferenceable(104) %2) #11
  br label %_ZN11MutexLockerC2EP5MutexNS0_18SafepointCheckFlagE.exit

_ZN11MutexLockerC2EP5MutexNS0_18SafepointCheckFlagE.exit: ; preds = %1, %3
  %4 = load ptr, ptr @_ZN17ExternalsRecorder9_recorderE, align 8
  %5 = getelementptr inbounds i8, ptr %4, i64 48
  %6 = tail call noundef i32 @_ZN13ValueRecorderIPhE16maybe_find_indexES0_(ptr noundef nonnull align 8 dereferenceable(33) %5, ptr noundef %0)
  %7 = icmp slt i32 %6, 0
  br i1 %7, label %8, label %_ZN13ValueRecorderIPhE10find_indexES0_.exit

8:                                                ; preds = %_ZN11MutexLockerC2EP5MutexNS0_18SafepointCheckFlagE.exit
  %9 = tail call noundef i32 @_ZN13ValueRecorderIPhE10add_handleES0_b(ptr noundef nonnull align 8 dereferenceable(33) %5, ptr noundef %0, i1 noundef zeroext true)
  br label %_ZN13ValueRecorderIPhE10find_indexES0_.exit

_ZN13ValueRecorderIPhE10find_indexES0_.exit:      ; preds = %_ZN11MutexLockerC2EP5MutexNS0_18SafepointCheckFlagE.exit, %8
  %.0.i = phi i32 [ %9, %8 ], [ %6, %_ZN11MutexLockerC2EP5MutexNS0_18SafepointCheckFlagE.exit ]
  br i1 %.not.i.i, label %_ZN11MutexLockerD2Ev.exit, label %10

10:                                               ; preds = %_ZN13ValueRecorderIPhE10find_indexES0_.exit
  tail call void @_ZN5Mutex6unlockEv(ptr noundef nonnull align 8 dereferenceable(104) %2) #11
  br label %_ZN11MutexLockerD2Ev.exit

_ZN11MutexLockerD2Ev.exit:                        ; preds = %_ZN13ValueRecorderIPhE10find_indexES0_.exit, %10
  ret i32 %.0.i
}